target datalayout = "e-m:e-p270:32:32-p271:32:32-p272:64:64-i64:64-i128:128-f80:128-n8:16:32:64-S128"
target triple = "x86_64-pc-linux-gnu"

%struct.cache_time = type { i32, i32 }
%struct.object_id = type { [32 x i8], i32 }
%struct.cache_entry = type { %struct.hashmap_entry, %struct.stat_data, i32, i32, i32, i32, i32, %struct.object_id, [0 x i8] }
%struct.hashmap_entry = type { ptr, i32 }
%struct.stat_data = type { %struct.cache_time, %struct.cache_time, i32, i32, i32, i32, i32 }

@should_validate_cache_entries.validate_index_cache_entries = internal global i32 -1, align 4
@.str.45 = private unnamed_addr constant [38 x i8] c"GIT_TEST_VALIDATE_INDEX_CACHE_ENTRIES\00", align 1

; Function Attrs: nounwind uwtable
define dso_local i32 @should_validate_cache_entries() #0 {
  %1 = load i32, ptr @should_validate_cache_entries.validate_index_cache_entries, align 4, !tbaa !9
  %2 = icmp slt i32 %1, 0
  br i1 %2, label %3, label %9

3:                                                ; preds = %0
  %4 = call ptr @getenv(ptr noundef @.str.45) #12
  %5 = icmp ne ptr %4, null
  br i1 %5, label %6, label %7

6:                                                ; preds = %3
  store i32 1, ptr @should_validate_cache_entries.validate_index_cache_entries, align 4, !tbaa !9
  br label %8

7:                                                ; preds = %3
  store i32 0, ptr @should_validate_cache_entries.validate_index_cache_entries, align 4, !tbaa !9
  br label %8

8:                                                ; preds = %7, %6
  br label %9

9:                                                ; preds = %8, %0
  %10 = load i32, ptr @should_validate_cache_entries.validate_index_cache_entries, align 4, !tbaa !9
  ret i32 %10
}

; Function Attrs: nounwind uwtable
define dso_local void @discard_cache_entry(ptr noundef %0) #0 {
  %2 = alloca ptr, align 8
  store ptr %0, ptr %2, align 8, !tbaa !29
  %3 = load ptr, ptr %2, align 8, !tbaa !29
  %4 = icmp ne ptr %3, null
  br i1 %4, label %5, label %16

5:                                                ; preds = %1
  %6 = call i32 @should_validate_cache_entries()
  %7 = icmp ne i32 %6, 0
  br i1 %7, label %8, label %16

8:                                                ; preds = %5
  %9 = load ptr, ptr %2, align 8, !tbaa !29
  %10 = load ptr, ptr %2, align 8, !tbaa !29
  %11 = getelementptr inbounds nuw %struct.cache_entry, ptr %10, i32 0, i32 5
  %12 = load i32, ptr %11, align 8, !tbaa !9
  %13 = zext i32 %12 to i64
  %14 = add i64 108, %13
  %15 = add i64 %14, 1
  call void @llvm.memset.p0.i64(ptr align 8 %9, i8 -51, i64 %15, i1 false)
  br label %16

16:                                               ; preds = %8, %5, %1
  %17 = load ptr, ptr %2, align 8, !tbaa !29
  %18 = icmp ne ptr %17, null
  br i1 %18, label %19, label %25

19:                                               ; preds = %16
  %20 = load ptr, ptr %2, align 8, !tbaa !29
  %21 = getelementptr inbounds nuw %struct.cache_entry, ptr %20, i32 0, i32 4
  %22 = load i32, ptr %21, align 4, !tbaa !9
  %23 = icmp ne i32 %22, 0
  br i1 %23, label %24, label %25

24:                                               ; preds = %19
  br label %27

25:                                               ; preds = %19, %16
  %26 = load ptr, ptr %2, align 8, !tbaa !29
  call void @free(ptr noundef %26) #12
  br label %27

27:                                               ; preds = %25, %24
  ret void
}