; Function Attrs: nounwind uwtable
define dso_local void @discard_cache_entry(ptr noundef %0) local_unnamed_addr #0 {
  %.not = icmp eq ptr %0, null
  br i1 %.not, label %.critedge, label %2

2:                                                ; preds = %1
  %3 = load i32, ptr @should_validate_cache_entries.validate_index_cache_entries, align 4, !tbaa !32
  %4 = icmp slt i32 %3, 0
  br i1 %4, label %.sink.split.i, label %should_validate_cache_entries.exit

.sink.split.i:                                    ; preds = %2
  %5 = tail call ptr @getenv(ptr noundef nonnull @.str.45) #30
  %.not.i = icmp ne ptr %5, null
  %..i = zext i1 %.not.i to i32
  store i32 %..i, ptr @should_validate_cache_entries.validate_index_cache_entries, align 4, !tbaa !32
  br label %should_validate_cache_entries.exit

should_validate_cache_entries.exit:               ; preds = %2, %.sink.split.i
  %6 = phi i32 [ %3, %2 ], [ %..i, %.sink.split.i ]
  %.not6 = icmp eq i32 %6, 0
  br i1 %.not6, label %12, label %7

7:                                                ; preds = %should_validate_cache_entries.exit
  %8 = getelementptr inbounds nuw i8, ptr %0, i64 64
  %9 = load i32, ptr %8, align 8, !tbaa !32
  %10 = zext i32 %9 to i64
  %11 = add nuw nsw i64 %10, 109
  tail call void @llvm.memset.p0.i64(ptr noundef nonnull align 8 dereferenceable(1) %0, i8 -51, i64 %11, i1 false)
  br label %12

12:                                               ; preds = %should_validate_cache_entries.exit, %7
  %13 = getelementptr inbounds nuw i8, ptr %0, i64 60
  %14 = load i32, ptr %13, align 4, !tbaa !32
  %.not7 = icmp eq i32 %14, 0
  br i1 %.not7, label %.critedge, label %15

.critedge:                                        ; preds = %1, %12
  tail call void @free(ptr noundef %0) #30
  br label %15

15:                                               ; preds = %12, %.critedge
  ret void
}